target datalayout = "e-m:e-p270:32:32-p271:32:32-p272:64:64-i64:64-i128:128-f80:128-n8:16:32:64-S128"
target triple = "x86_64-pc-linux-gnu"

%struct.Qureg = type { i32, i32, i32, i64, i64, i32, i32, %struct.ComplexArray, %struct.ComplexArray, %struct.ComplexArray, ptr, ptr, ptr, ptr, ptr, ptr }
%struct.ComplexArray = type { ptr, ptr }

@__func__.setDensityAmps = private unnamed_addr constant [15 x i8] c"setDensityAmps\00", align 1
@.str.17 = private unnamed_addr constant [66 x i8] c"Here, some amplitudes in the density matrix were manually edited.\00", align 1

; Function Attrs: nounwind uwtable
define void @setDensityAmps(ptr noundef byval(%struct.Qureg) align 8 %0, i64 noundef %1, i64 noundef %2, ptr noundef %3, ptr noundef %4, i64 noundef %5) #0 {
  %7 = alloca i64, align 8
  %8 = alloca i64, align 8
  %9 = alloca ptr, align 8
  %10 = alloca ptr, align 8
  %11 = alloca i64, align 8
  %12 = alloca i64, align 8
  store i64 %1, ptr %7, align 8, !tbaa !22
  store i64 %2, ptr %8, align 8, !tbaa !22
  store ptr %3, ptr %9, align 8, !tbaa !23
  store ptr %4, ptr %10, align 8, !tbaa !23
  store i64 %5, ptr %11, align 8, !tbaa !22
  call void @validateDensityMatrQureg(ptr noundef byval(%struct.Qureg) align 8 %0, ptr noundef @__func__.setDensityAmps)
  %13 = load i64, ptr %7, align 8, !tbaa !22
  %14 = load i64, ptr %8, align 8, !tbaa !22
  %15 = load i64, ptr %11, align 8, !tbaa !22
  call void @validateNumDensityAmps(ptr noundef byval(%struct.Qureg) align 8 %0, i64 noundef %13, i64 noundef %14, i64 noundef %15, ptr noundef @__func__.setDensityAmps)
  call void @llvm.lifetime.start.p0(i64 8, ptr %12) #7
  %16 = load i64, ptr %7, align 8, !tbaa !22
  %17 = load i64, ptr %8, align 8, !tbaa !22
  %18 = getelementptr inbounds nuw %struct.Qureg, ptr %0, i32 0, i32 1
  %19 = load i32, ptr %18, align 4, !tbaa !18
  %20 = shl i32 1, %19
  %21 = sext i32 %20 to i64
  %22 = mul nsw i64 %17, %21
  %23 = add nsw i64 %16, %22
  store i64 %23, ptr %12, align 8, !tbaa !22
  %24 = load i64, ptr %12, align 8, !tbaa !22
  %25 = load ptr, ptr %9, align 8, !tbaa !23
  %26 = load ptr, ptr %10, align 8, !tbaa !23
  %27 = load i64, ptr %11, align 8, !tbaa !22
  call void @statevec_setAmps(ptr noundef byval(%struct.Qureg) align 8 %0, i64 noundef %24, ptr noundef %25, ptr noundef %26, i64 noundef %27)
  call void (ptr, ptr, ...) @qasm_recordComment(ptr noundef byval(%struct.Qureg) align 8 %0, ptr noundef @.str.17)
  call void @llvm.lifetime.end.p0(i64 8, ptr %12) #7
  ret void
}