; Function Attrs: nounwind uwtable
define void @setDensityAmps(ptr noundef readonly byval(%struct.Qureg) align 8 captures(none) %0, i64 noundef %1, i64 noundef %2, ptr noundef %3, ptr noundef %4, i64 noundef %5) local_unnamed_addr #0 {
  tail call void @validateDensityMatrQureg(ptr noundef nonnull byval(%struct.Qureg) align 8 %0, ptr noundef nonnull @__func__.setDensityAmps) #17
  tail call void @validateNumDensityAmps(ptr noundef nonnull byval(%struct.Qureg) align 8 %0, i64 noundef %1, i64 noundef %2, i64 noundef %5, ptr noundef nonnull @__func__.setDensityAmps) #17
  %7 = getelementptr inbounds nuw i8, ptr %0, i64 4
  %8 = load i32, ptr %7, align 4, !tbaa !17
  %9 = shl nuw i32 1, %8
  %10 = sext i32 %9 to i64
  %11 = mul nsw i64 %2, %10
  %12 = add nsw i64 %11, %1
  tail call void @statevec_setAmps(ptr noundef nonnull byval(%struct.Qureg) align 8 %0, i64 noundef %12, ptr noundef %3, ptr noundef %4, i64 noundef %5) #17
  tail call void (ptr, ptr, ...) @qasm_recordComment(ptr noundef nonnull byval(%struct.Qureg) align 8 %0, ptr noundef nonnull @.str.17) #17
  ret void
}